Certificate:
    Data:
        Version: 3 (0x2)
        Serial Number:
            f9:8d:27:93:d8:4a:ab:66:9d:e1:df:c5:39:cf:bb:b0
    Signature Algorithm: sha256WithRSAEncryption
        Issuer: CN=VPNCA
        Validity
            Not Before: Apr 20 22:58:58 2019 GMT
            Not After : Apr  4 22:58:58 2022 GMT
        Subject: CN=VPNclient
        Subject Public Key Info:
            Public Key Algorithm: rsaEncryption
                Public-Key: (2048 bit)
                Modulus:
                    00:c3:10:cf:24:2c:36:0c:f0:cd:1d:6c:a9:55:73:
                    32:0f:40:a7:6d:ed:ea:d5:f6:77:55:ec:f6:93:2a:
                    69:06:15:e8:59:1e:e5:fc:d0:cb:57:51:2d:0b:a3:
                    e8:a4:1a:b8:3f:b6:b8:41:35:0c:3f:d0:f2:a1:c8:
                    77:c2:25:8a:49:55:4f:28:54:74:3d:ee:b5:ba:79:
                    bd:43:c1:76:24:f4:e9:67:e3:f1:fa:01:60:f9:05:
                    10:65:33:c4:df:d9:25:7f:f9:d0:fe:e1:88:85:dc:
                    f3:af:3c:0a:d2:64:66:8d:ab:97:8a:67:17:46:c7:
                    80:cf:ae:32:f3:98:d7:e4:44:84:fb:55:9f:25:d5:
                    8e:ab:1e:dc:52:75:7f:09:13:9f:aa:bf:6e:67:35:
                    65:98:f3:2f:dc:20:ba:84:3b:9a:39:1f:9a:ad:12:
                    61:b2:20:9b:6c:c7:4d:0e:fa:aa:fe:37:25:8a:74:
                    c9:d8:89:b6:1d:89:14:f6:4b:86:ac:30:28:5a:c8:
                    c8:04:27:fe:8f:16:a4:ea:09:32:c2:5c:fa:43:8b:
                    a5:b8:8e:a0:49:4c:0c:ca:b4:d5:44:07:53:b9:a1:
                    34:75:43:4f:95:95:3c:81:42:db:5d:ca:51:a6:42:
                    7e:97:a8:32:3c:5e:e7:91:cf:bd:96:52:3b:a0:8d:
                    86:23
                Exponent: 65537 (0x10001)
        X509v3 extensions:
            X509v3 Basic Constraints: 
                CA:FALSE
            X509v3 Subject Key Identifier: 
                B9:2A:0C:69:CD:7B:EE:4A:3C:AF:36:24:68:59:50:0D:FF:E3:8E:05
            X509v3 Authority Key Identifier: 
                keyid:66:8C:68:FB:97:B4:7B:D0:11:D8:64:05:23:60:DE:A2:33:4B:1D:C8
                DirName:/CN=VPNCA
                serial:82:9E:E9:4A:EC:40:76:AC

            X509v3 Extended Key Usage: 
                TLS Web Client Authentication
            X509v3 Key Usage: 
                Digital Signature
    Signature Algorithm: sha256WithRSAEncryption
         67:56:51:fb:6d:2b:cf:17:37:94:78:f2:0f:31:bb:77:12:ca:
         34:cf:40:a9:1b:83:91:a5:bb:01:ff:b5:6b:93:4c:46:d8:8d:
         c8:2b:13:61:a7:62:80:a7:7d:b3:d8:fb:b7:46:93:7e:aa:4d:
         aa:94:df:47:f3:45:30:fb:05:0c:51:b7:20:82:da:24:ff:4d:
         dc:a1:0b:c4:d5:3b:f7:61:53:dd:f9:38:56:b3:21:1c:25:db:
         28:20:7d:92:8a:54:3d:6b:62:13:9d:17:7e:9a:cc:e1:1a:1b:
         46:b4:34:6a:93:7a:5d:9f:b6:7d:89:d0:9e:39:85:c9:ff:d2:
         81:1d:23:6d:db:08:af:50:b6:03:71:35:79:b0:0e:55:3c:d2:
         5d:2a:e4:b3:45:a3:68:3c:57:b7:ce:4c:77:6a:3a:9b:c1:68:
         81:83:a3:61:5c:00:51:19:a9:80:9a:ed:0b:76:de:b2:09:31:
         8d:58:ae:8c:f8:64:f4:eb:32:91:28:53:32:a3:f4:43:b6:7a:
         c9:e5:ad:97:29:f5:74:25:ee:47:44:7f:a5:a3:fa:2c:ad:93:
         18:c4:66:be:da:c9:cd:a0:3c:df:4e:65:1b:f6:1c:a1:72:d9:
         27:16:0b:37:59:00:3f:a5:9e:63:80:42:d1:db:1a:d8:d5:fd:
         31:30:fe:b5
-----BEGIN CERTIFICATE-----
MIIDQTCCAimgAwIBAgIRAPmNJ5PYSqtmneHfxTnPu7AwDQYJKoZIhvcNAQELBQAw
EDEOMAwGA1UEAwwFVlBOQ0EwHhcNMTkwNDIwMjI1ODU4WhcNMjIwNDA0MjI1ODU4
WjAUMRIwEAYDVQQDDAlWUE5jbGllbnQwggEiMA0GCSqGSIb3DQEBAQUAA4IBDwAw
ggEKAoIBAQDDEM8kLDYM8M0dbKlVczIPQKdt7erV9ndV7PaTKmkGFehZHuX80MtX
US0Lo+ikGrg/trhBNQw/0PKhyHfCJYpJVU8oVHQ97rW6eb1DwXYk9Oln4/H6AWD5
BRBlM8Tf2SV/+dD+4YiF3POvPArSZGaNq5eKZxdGx4DPrjLzmNfkRIT7VZ8l1Y6r
HtxSdX8JE5+qv25nNWWY8y/cILqEO5o5H5qtEmGyIJtsx00O+qr+NyWKdMnYibYd
iRT2S4asMChayMgEJ/6PFqTqCTLCXPpDi6W4jqBJTAzKtNVEB1O5oTR1Q0+VlTyB
QttdylGmQn6XqDI8XueRz72WUjugjYYjAgMBAAGjgZEwgY4wCQYDVR0TBAIwADAd
BgNVHQ4EFgQUuSoMac177ko8rzYkaFlQDf/jjgUwQAYDVR0jBDkwN4AUZoxo+5e0
e9AR2GQFI2DeojNLHcihFKQSMBAxDjAMBgNVBAMMBVZQTkNBggkAgp7pSuxAdqww
EwYDVR0lBAwwCgYIKwYBBQUHAwIwCwYDVR0PBAQDAgeAMA0GCSqGSIb3DQEBCwUA
A4IBAQBnVlH7bSvPFzeUePIPMbt3Eso0z0CpG4ORpbsB/7Vrk0xG2I3IKxNhp2KA
p32z2Pu3RpN+qk2qlN9H80Uw+wUMUbcggtok/03coQvE1Tv3YVPd+ThWsyEcJdso
IH2SilQ9a2ITnRd+mszhGhtGtDRqk3pdn7Z9idCeOYXJ/9KBHSNt2wivULYDcTV5
sA5VPNJdKuSzRaNoPFe3zkx3ajqbwWiBg6NhXABRGamAmu0Ldt6yCTGNWK6M+GT0
6zKRKFMyo/RDtnrJ5a2XKfV0Je5HRH+lo/osrZMYxGa+2snNoDzfTmUb9hyhctkn
Fgs3WQA/pZ5jgELR2xrY1f0xMP61
-----END CERTIFICATE-----
